; Function Attrs: mustprogress nounwind uwtable
define void @_ZN18InterfaceTreeModelD2Ev(ptr noundef nonnull align 8 dereferenceable(32) %0) unnamed_addr #0 align 2 personality ptr @__gxx_personality_v0 {
  store ptr getelementptr inbounds ({ [51 x ptr] }, ptr @_ZTV18InterfaceTreeModel, i64 0, i32 0, i64 2), ptr %0, align 8
  %2 = getelementptr inbounds i8, ptr %0, i64 24
  %3 = load ptr, ptr %2, align 8
  %.not.i.i = icmp eq ptr %3, null
  br i1 %.not.i.i, label %_ZN4QMapI7QStringbED2Ev.exit, label %4

4:                                                ; preds = %1
  %5 = atomicrmw sub ptr %3, i32 1 seq_cst, align 4
  %.not2.i.i = icmp eq i32 %5, 1
  br i1 %.not2.i.i, label %6, label %_ZN4QMapI7QStringbED2Ev.exit

6:                                                ; preds = %4
  %7 = load ptr, ptr %2, align 8
  %8 = icmp eq ptr %7, null
  br i1 %8, label %_ZN4QMapI7QStringbED2Ev.exit, label %9

9:                                                ; preds = %6
  %10 = getelementptr inbounds i8, ptr %7, i64 8
  %11 = getelementptr inbounds i8, ptr %7, i64 24
  %12 = load ptr, ptr %11, align 8
  invoke void @_ZNSt8_Rb_treeI7QStringSt4pairIKS0_bESt10_Select1stIS3_ESt4lessIS0_ESaIS3_EE8_M_eraseEPSt13_Rb_tree_nodeIS3_E(ptr noundef nonnull align 8 dereferenceable(48) %10, ptr noundef %12)
          to label %_ZN8QMapDataISt3mapI7QStringbSt4lessIS1_ESaISt4pairIKS1_bEEEED2Ev.exit.i.i unwind label %13

13:                                               ; preds = %9
  %14 = landingpad { ptr, i32 }
          catch ptr null
  %15 = extractvalue { ptr, i32 } %14, 0
  tail call void @__clang_call_terminate(ptr %15) #15
  unreachable

_ZN8QMapDataISt3mapI7QStringbSt4lessIS1_ESaISt4pairIKS1_bEEEED2Ev.exit.i.i: ; preds = %9
  tail call void @_ZdlPv(ptr noundef nonnull %7) #16
  br label %_ZN4QMapI7QStringbED2Ev.exit

_ZN4QMapI7QStringbED2Ev.exit:                     ; preds = %1, %4, %6, %_ZN8QMapDataISt3mapI7QStringbSt4lessIS1_ESaISt4pairIKS1_bEEEED2Ev.exit.i.i
  %16 = getelementptr inbounds i8, ptr %0, i64 16
  %17 = load ptr, ptr %16, align 8
  %.not.i.i1 = icmp eq ptr %17, null
  br i1 %.not.i.i1, label %_ZN4QMapI7QString5QListIiEED2Ev.exit, label %18

18:                                               ; preds = %_ZN4QMapI7QStringbED2Ev.exit
  %19 = atomicrmw sub ptr %17, i32 1 seq_cst, align 4
  %.not2.i.i2 = icmp eq i32 %19, 1
  br i1 %.not2.i.i2, label %20, label %_ZN4QMapI7QString5QListIiEED2Ev.exit

20:                                               ; preds = %18
  %21 = load ptr, ptr %16, align 8
  %22 = icmp eq ptr %21, null
  br i1 %22, label %_ZN4QMapI7QString5QListIiEED2Ev.exit, label %23

23:                                               ; preds = %20
  %24 = getelementptr inbounds i8, ptr %21, i64 8
  %25 = getelementptr inbounds i8, ptr %21, i64 24
  %26 = load ptr, ptr %25, align 8
  invoke void @_ZNSt8_Rb_treeI7QStringSt4pairIKS0_5QListIiEESt10_Select1stIS5_ESt4lessIS0_ESaIS5_EE8_M_eraseEPSt13_Rb_tree_nodeIS5_E(ptr noundef nonnull align 8 dereferenceable(48) %24, ptr noundef %26)
          to label %_ZN8QMapDataISt3mapI7QString5QListIiESt4lessIS1_ESaISt4pairIKS1_S3_EEEED2Ev.exit.i.i unwind label %27

27:                                               ; preds = %23
  %28 = landingpad { ptr, i32 }
          catch ptr null
  %29 = extractvalue { ptr, i32 } %28, 0
  tail call void @__clang_call_terminate(ptr %29) #15
  unreachable

_ZN8QMapDataISt3mapI7QString5QListIiESt4lessIS1_ESaISt4pairIKS1_S3_EEEED2Ev.exit.i.i: ; preds = %23
  tail call void @_ZdlPv(ptr noundef nonnull %21) #16
  br label %_ZN4QMapI7QString5QListIiEED2Ev.exit

_ZN4QMapI7QString5QListIiEED2Ev.exit:             ; preds = %_ZN4QMapI7QStringbED2Ev.exit, %18, %20, %_ZN8QMapDataISt3mapI7QString5QListIiESt4lessIS1_ESaISt4pairIKS1_S3_EEEED2Ev.exit.i.i
  tail call void @_ZN19QAbstractTableModelD2Ev(ptr noundef nonnull align 8 dereferenceable(16) %0) #13
  ret void
}